target datalayout = "e-m:e-p270:32:32-p271:32:32-p272:64:64-i64:64-i128:128-f80:128-n8:16:32:64-S128"
target triple = "x86_64-pc-linux-gnu"

; Function Attrs: nounwind uwtable
define internal void @unpremultiply8(ptr noundef %0, ptr noundef %1, ptr noundef %2, i64 noundef %3, i64 noundef %4, i64 noundef %5, i32 noundef %6, i32 noundef %7, i32 noundef %8, i32 noundef %9, i32 noundef %10) #1 {
  %12 = alloca ptr, align 8
  %13 = alloca ptr, align 8
  %14 = alloca ptr, align 8
  %15 = alloca i64, align 8
  %16 = alloca i64, align 8
  %17 = alloca i64, align 8
  %18 = alloca i32, align 4
  %19 = alloca i32, align 4
  %20 = alloca i32, align 4
  %21 = alloca i32, align 4
  %22 = alloca i32, align 4
  %23 = alloca i32, align 4
  %24 = alloca i32, align 4
  store ptr %0, ptr %12, align 8, !tbaa !91
  store ptr %1, ptr %13, align 8, !tbaa !91
  store ptr %2, ptr %14, align 8, !tbaa !91
  store i64 %3, ptr %15, align 8, !tbaa !50
  store i64 %4, ptr %16, align 8, !tbaa !50
  store i64 %5, ptr %17, align 8, !tbaa !50
  store i32 %6, ptr %18, align 4, !tbaa !37
  store i32 %7, ptr %19, align 4, !tbaa !37
  store i32 %8, ptr %20, align 4, !tbaa !37
  store i32 %9, ptr %21, align 4, !tbaa !37
  store i32 %10, ptr %22, align 4, !tbaa !37
  call void @llvm.lifetime.start.p0(i64 4, ptr %23) #11
  call void @llvm.lifetime.start.p0(i64 4, ptr %24) #11
  store i32 0, ptr %24, align 4, !tbaa !37
  br label %25

25:                                               ; preds = %113, %11
  %26 = load i32, ptr %24, align 4, !tbaa !37
  %27 = load i32, ptr %19, align 4, !tbaa !37
  %28 = icmp slt i32 %26, %27
  br i1 %28, label %29, label %116

29:                                               ; preds = %25
  store i32 0, ptr %23, align 4, !tbaa !37
  br label %30

30:                                               ; preds = %100, %29
  %31 = load i32, ptr %23, align 4, !tbaa !37
  %32 = load i32, ptr %18, align 4, !tbaa !37
  %33 = icmp slt i32 %31, %32
  br i1 %33, label %34, label %103

34:                                               ; preds = %30
  %35 = load ptr, ptr %13, align 8, !tbaa !91
  %36 = load i32, ptr %23, align 4, !tbaa !37
  %37 = sext i32 %36 to i64
  %38 = getelementptr inbounds i8, ptr %35, i64 %37
  %39 = load i8, ptr %38, align 1, !tbaa !92
  %40 = zext i8 %39 to i32
  %41 = icmp sgt i32 %40, 0
  br i1 %41, label %42, label %89

42:                                               ; preds = %34
  %43 = load ptr, ptr %13, align 8, !tbaa !91
  %44 = load i32, ptr %23, align 4, !tbaa !37
  %45 = sext i32 %44 to i64
  %46 = getelementptr inbounds i8, ptr %43, i64 %45
  %47 = load i8, ptr %46, align 1, !tbaa !92
  %48 = zext i8 %47 to i32
  %49 = icmp slt i32 %48, 255
  br i1 %49, label %50, label %89

50:                                               ; preds = %42
  %51 = load ptr, ptr %12, align 8, !tbaa !91
  %52 = load i32, ptr %23, align 4, !tbaa !37
  %53 = sext i32 %52 to i64
  %54 = getelementptr inbounds i8, ptr %51, i64 %53
  %55 = load i8, ptr %54, align 1, !tbaa !92
  %56 = zext i8 %55 to i32
  %57 = mul nsw i32 %56, 255
  %58 = load ptr, ptr %13, align 8, !tbaa !91
  %59 = load i32, ptr %23, align 4, !tbaa !37
  %60 = sext i32 %59 to i64
  %61 = getelementptr inbounds i8, ptr %58, i64 %60
  %62 = load i8, ptr %61, align 1, !tbaa !92
  %63 = zext i8 %62 to i32
  %64 = sdiv i32 %57, %63
  %65 = icmp sgt i32 %64, 255
  br i1 %65, label %66, label %67

66:                                               ; preds = %50
  br label %82

67:                                               ; preds = %50
  %68 = load ptr, ptr %12, align 8, !tbaa !91
  %69 = load i32, ptr %23, align 4, !tbaa !37
  %70 = sext i32 %69 to i64
  %71 = getelementptr inbounds i8, ptr %68, i64 %70
  %72 = load i8, ptr %71, align 1, !tbaa !92
  %73 = zext i8 %72 to i32
  %74 = mul nsw i32 %73, 255
  %75 = load ptr, ptr %13, align 8, !tbaa !91
  %76 = load i32, ptr %23, align 4, !tbaa !37
  %77 = sext i32 %76 to i64
  %78 = getelementptr inbounds i8, ptr %75, i64 %77
  %79 = load i8, ptr %78, align 1, !tbaa !92
  %80 = zext i8 %79 to i32
  %81 = sdiv i32 %74, %80
  br label %82

82:                                               ; preds = %67, %66
  %83 = phi i32 [ 255, %66 ], [ %81, %67 ]
  %84 = trunc i32 %83 to i8
  %85 = load ptr, ptr %14, align 8, !tbaa !91
  %86 = load i32, ptr %23, align 4, !tbaa !37
  %87 = sext i32 %86 to i64
  %88 = getelementptr inbounds i8, ptr %85, i64 %87
  store i8 %84, ptr %88, align 1, !tbaa !92
  br label %99

89:                                               ; preds = %42, %34
  %90 = load ptr, ptr %12, align 8, !tbaa !91
  %91 = load i32, ptr %23, align 4, !tbaa !37
  %92 = sext i32 %91 to i64
  %93 = getelementptr inbounds i8, ptr %90, i64 %92
  %94 = load i8, ptr %93, align 1, !tbaa !92
  %95 = load ptr, ptr %14, align 8, !tbaa !91
  %96 = load i32, ptr %23, align 4, !tbaa !37
  %97 = sext i32 %96 to i64
  %98 = getelementptr inbounds i8, ptr %95, i64 %97
  store i8 %94, ptr %98, align 1, !tbaa !92
  br label %99

99:                                               ; preds = %89, %82
  br label %100

100:                                              ; preds = %99
  %101 = load i32, ptr %23, align 4, !tbaa !37
  %102 = add nsw i32 %101, 1
  store i32 %102, ptr %23, align 4, !tbaa !37
  br label %30, !llvm.loop !93

103:                                              ; preds = %30
  %104 = load i64, ptr %17, align 8, !tbaa !50
  %105 = load ptr, ptr %14, align 8, !tbaa !91
  %106 = getelementptr inbounds i8, ptr %105, i64 %104
  store ptr %106, ptr %14, align 8, !tbaa !91
  %107 = load i64, ptr %15, align 8, !tbaa !50
  %108 = load ptr, ptr %12, align 8, !tbaa !91
  %109 = getelementptr inbounds i8, ptr %108, i64 %107
  store ptr %109, ptr %12, align 8, !tbaa !91
  %110 = load i64, ptr %16, align 8, !tbaa !50
  %111 = load ptr, ptr %13, align 8, !tbaa !91
  %112 = getelementptr inbounds i8, ptr %111, i64 %110
  store ptr %112, ptr %13, align 8, !tbaa !91
  br label %113

113:                                              ; preds = %103
  %114 = load i32, ptr %24, align 4, !tbaa !37
  %115 = add nsw i32 %114, 1
  store i32 %115, ptr %24, align 4, !tbaa !37
  br label %25, !llvm.loop !94

116:                                              ; preds = %25
  call void @llvm.lifetime.end.p0(i64 4, ptr %24) #11
  call void @llvm.lifetime.end.p0(i64 4, ptr %23) #11
  ret void
}