; Function Attrs: nofree norecurse nosync nounwind memory(argmem: readwrite) uwtable
define internal void @unpremultiply8(ptr noundef readonly captures(none) %0, ptr noundef readonly captures(none) %1, ptr noundef writeonly captures(none) %2, i64 noundef %3, i64 noundef %4, i64 noundef %5, i32 noundef %6, i32 noundef %7, i32 %8, i32 %9, i32 %10) #5 {
  %12 = icmp sgt i32 %7, 0
  %13 = icmp sgt i32 %6, 0
  %or.cond = and i1 %12, %13
  br i1 %or.cond, label %.preheader.us.preheader, label %._crit_edge42

.preheader.us.preheader:                          ; preds = %11
  %wide.trip.count = zext nneg i32 %6 to i64
  br label %.preheader.us

.preheader.us:                                    ; preds = %.preheader.us.preheader, %._crit_edge.us
  %.041.us = phi i32 [ %30, %._crit_edge.us ], [ 0, %.preheader.us.preheader ]
  %.03040.us = phi ptr [ %28, %._crit_edge.us ], [ %0, %.preheader.us.preheader ]
  %.03139.us = phi ptr [ %29, %._crit_edge.us ], [ %1, %.preheader.us.preheader ]
  %.03238.us = phi ptr [ %27, %._crit_edge.us ], [ %2, %.preheader.us.preheader ]
  br label %14

14:                                               ; preds = %.preheader.us, %25
  %indvars.iv = phi i64 [ 0, %.preheader.us ], [ %indvars.iv.next, %25 ]
  %15 = getelementptr inbounds nuw i8, ptr %.03139.us, i64 %indvars.iv
  %16 = load i8, ptr %15, align 1, !tbaa !78
  switch i8 %16, label %20 [
    i8 0, label %17
    i8 -1, label %17
  ]

17:                                               ; preds = %14, %14
  %18 = getelementptr inbounds nuw i8, ptr %.03040.us, i64 %indvars.iv
  %19 = load i8, ptr %18, align 1, !tbaa !78
  br label %25

20:                                               ; preds = %14
  %21 = getelementptr inbounds nuw i8, ptr %.03040.us, i64 %indvars.iv
  %22 = load i8, ptr %21, align 1, !tbaa !78
  %23 = zext i8 %22 to i16
  %.lhs.trunc.us = mul nuw i16 %23, 255
  %.rhs.trunc.us = zext i8 %16 to i16
  %24 = udiv i16 %.lhs.trunc.us, %.rhs.trunc.us
  %spec.select36.us = tail call i16 @llvm.umin.i16(i16 %24, i16 255)
  %spec.select.us = trunc nuw i16 %spec.select36.us to i8
  br label %25

25:                                               ; preds = %20, %17
  %spec.select.us.sink = phi i8 [ %spec.select.us, %20 ], [ %19, %17 ]
  %26 = getelementptr inbounds nuw i8, ptr %.03238.us, i64 %indvars.iv
  store i8 %spec.select.us.sink, ptr %26, align 1, !tbaa !78
  %indvars.iv.next = add nuw nsw i64 %indvars.iv, 1
  %exitcond.not = icmp eq i64 %indvars.iv.next, %wide.trip.count
  br i1 %exitcond.not, label %._crit_edge.us, label %14, !llvm.loop !79

._crit_edge.us:                                   ; preds = %25
  %27 = getelementptr inbounds i8, ptr %.03238.us, i64 %5
  %28 = getelementptr inbounds i8, ptr %.03040.us, i64 %3
  %29 = getelementptr inbounds i8, ptr %.03139.us, i64 %4
  %30 = add nuw nsw i32 %.041.us, 1
  %exitcond45.not = icmp eq i32 %30, %7
  br i1 %exitcond45.not, label %._crit_edge42, label %.preheader.us, !llvm.loop !80

._crit_edge42:                                    ; preds = %._crit_edge.us, %11
  ret void
}